; Function Attrs: mustprogress nounwind uwtable
define hidden void @_ZN4llvh16FoldingSetNodeID9AddNodeIDERKS0_(ptr noundef nonnull align 8 dereferenceable(144) %this, ptr nocapture noundef nonnull readonly align 8 dereferenceable(144) %ID) local_unnamed_addr #0 align 2 {
entry:
  %0 = load ptr, ptr %ID, align 8
  %Size.i = getelementptr inbounds i8, ptr %ID, i64 8
  %1 = load i32, ptr %Size.i, align 8
  %conv.i = zext i32 %1 to i64
  %add.ptr.i.idx = shl nuw nsw i64 %conv.i, 2
  %Capacity.i.i = getelementptr inbounds i8, ptr %this, i64 12
  %2 = load i32, ptr %Capacity.i.i, align 4
  %conv.i.i = zext i32 %2 to i64
  %Size.i.i = getelementptr inbounds i8, ptr %this, i64 8
  %3 = load i32, ptr %Size.i.i, align 8
  %conv.i5.i = zext i32 %3 to i64
  %sub.i = sub nsw i64 %conv.i.i, %conv.i5.i
  %cmp.i = icmp ult i64 %sub.i, %conv.i
  br i1 %cmp.i, label %if.then.i, label %if.end.i

if.then.i:                                        ; preds = %entry
  %add.i = add nuw nsw i64 %conv.i5.i, %conv.i
  %add.ptr.i.i.i.i = getelementptr inbounds i8, ptr %this, i64 16
  tail call void @_ZN4llvh15SmallVectorBase8grow_podEPvmm(ptr noundef nonnull align 8 dereferenceable(16) %this, ptr noundef nonnull %add.ptr.i.i.i.i, i64 noundef %add.i, i64 noundef 4) #21
  %.pre13.pre.i = load i32, ptr %Size.i.i, align 8
  br label %if.end.i

if.end.i:                                         ; preds = %if.then.i, %entry
  %.pre13.i = phi i32 [ %.pre13.pre.i, %if.then.i ], [ %3, %entry ]
  %cmp.not.i.i = icmp eq i32 %1, 0
  br i1 %cmp.not.i.i, label %_ZN4llvh15SmallVectorImplIjE6appendIPKjvEEvT_S5_.exit, label %if.then.i.i

if.then.i.i:                                      ; preds = %if.end.i
  %4 = load ptr, ptr %this, align 8
  %conv.i9.i = zext i32 %.pre13.i to i64
  %add.ptr.i.i = getelementptr inbounds i32, ptr %4, i64 %conv.i9.i
  tail call void @llvm.memcpy.p0.p0.i64(ptr align 1 %add.ptr.i.i, ptr align 4 %0, i64 %add.ptr.i.idx, i1 false)
  %.pre.i = load i32, ptr %Size.i.i, align 8
  br label %_ZN4llvh15SmallVectorImplIjE6appendIPKjvEEvT_S5_.exit

_ZN4llvh15SmallVectorImplIjE6appendIPKjvEEvT_S5_.exit: ; preds = %if.end.i, %if.then.i.i
  %5 = phi i32 [ %.pre13.i, %if.end.i ], [ %.pre.i, %if.then.i.i ]
  %conv.i12.i = add i32 %5, %1
  store i32 %conv.i12.i, ptr %Size.i.i, align 8
  ret void
}